; Function Attrs: mustprogress uwtable
define internal void @_ZNSt17_Function_handlerIFvPvPiEZN4absl18container_internal12_GLOBAL__N_14TestC1EvEUlS0_S1_E_E9_M_invokeERKSt9_Any_dataOS0_OS1_(ptr noundef nonnull readonly align 8 captures(none) dereferenceable(16) %0, ptr noundef nonnull readonly align 8 captures(none) dereferenceable(8) %1, ptr noundef nonnull readonly align 8 captures(none) dereferenceable(8) %2) #4 align 2 personality ptr @__gxx_personality_v0 {
  %4 = alloca %"class.std::tuple.79", align 8
  %.val = load ptr, ptr %0, align 8, !tbaa !511
  %.val3 = load ptr, ptr %1, align 8, !tbaa !61
  %.val4 = load ptr, ptr %2, align 8, !tbaa !80
  %5 = getelementptr inbounds nuw i8, ptr %.val, i64 96
  tail call void @_ZN7testing8internal25UntypedFunctionMockerBase15SetOwnerAndNameEPKvPKc(ptr noundef nonnull align 8 dereferenceable(72) %5, ptr noundef nonnull align 8 dereferenceable(72) %5, ptr noundef nonnull @.str.73)
  call void @llvm.lifetime.start.p0(i64 16, ptr nonnull %4) #28
  store ptr %.val4, ptr %4, align 8, !tbaa !420
  %6 = getelementptr inbounds nuw i8, ptr %4, i64 8
  store ptr %.val3, ptr %6, align 8, !tbaa !422
  call void @_ZN7testing8internal14FunctionMockerIFvPvPiEE10InvokeWithEOSt5tupleIJS2_S3_EE(ptr noundef nonnull align 8 dereferenceable(72) %5, ptr noundef nonnull align 8 dereferenceable(16) %4)
  call void @llvm.lifetime.end.p0(i64 16, ptr nonnull %4) #28
  ret void
}